; Function Attrs: null_pointer_is_valid sspstrong uwtable
define internal i32 @dissect_rlc_pcch(ptr noundef %0, ptr noundef %1, ptr noundef %2, ptr readnone captures(none) %3) #0 {
  %5 = getelementptr inbounds nuw i8, ptr %1, i64 8
  %6 = load ptr, ptr %5, align 8
  tail call void @col_set_str(ptr noundef %6, i32 noundef 35, ptr noundef nonnull @.str.126)
  %7 = load ptr, ptr %5, align 8
  tail call void @col_clear(ptr noundef %7, i32 noundef 25)
  %.not = icmp eq ptr %2, null
  br i1 %.not, label %.split, label %.split13

.split:                                           ; preds = %4
  %8 = tail call ptr @wmem_file_scope()
  %9 = load i32, ptr @proto_fp, align 4
  %10 = tail call ptr @p_get_proto_data(ptr noundef %8, ptr noundef %1, i32 noundef %9, i32 noundef 0)
  %11 = tail call ptr @wmem_file_scope()
  %12 = load i32, ptr @proto_umts_rlc, align 4
  %13 = tail call ptr @p_get_proto_data(ptr noundef %11, ptr noundef %1, i32 noundef %12, i32 noundef 0)
  tail call fastcc void @rlc_call_subdissector(i32 noundef 0, ptr noundef %0, ptr noundef %1, ptr noundef null)
  br label %18

.split13:                                         ; preds = %4
  %14 = load i32, ptr @proto_umts_rlc, align 4
  %15 = tail call ptr @proto_tree_add_item(ptr noundef nonnull %2, i32 noundef %14, ptr noundef %0, i32 noundef 0, i32 noundef -1, i32 noundef 0)
  %16 = load i32, ptr @ett_rlc, align 4
  %17 = tail call ptr @proto_item_add_subtree(ptr noundef %15, i32 noundef %16)
  tail call void (ptr, ptr, ...) @proto_item_append_text(ptr noundef %15, ptr noundef nonnull @.str.192)
  tail call fastcc void @dissect_rlc_tm(i32 noundef 0, ptr noundef %0, ptr noundef %1, ptr noundef nonnull %2, ptr noundef %17)
  br label %18

18:                                               ; preds = %.split, %.split13
  %19 = tail call i32 @tvb_captured_length(ptr noundef %0)
  ret i32 %19
}